target datalayout = "e-m:e-p270:32:32-p271:32:32-p272:64:64-i64:64-i128:128-f80:128-n8:16:32:64-S128"
target triple = "x86_64-unknown-linux-gnu"

%class.btHashedSimplePairCache = type { ptr, %class.btAlignedObjectArray, %class.btAlignedObjectArray.0, %class.btAlignedObjectArray.0 }
%class.btAlignedObjectArray = type <{ %class.btAlignedAllocator, [3 x i8], i32, i32, [4 x i8], ptr, i8, [7 x i8] }>
%class.btAlignedAllocator = type { i8 }
%class.btAlignedObjectArray.0 = type <{ %class.btAlignedAllocator.1, [3 x i8], i32, i32, [4 x i8], ptr, i8, [7 x i8] }>
%class.btAlignedAllocator.1 = type { i8 }
%struct.btSimplePair = type { i32, i32, %union.anon.4 }
%union.anon.4 = type { ptr }

; Function Attrs: mustprogress nounwind uwtable
define linkonce_odr dso_local noundef zeroext i1 @_ZN23btHashedSimplePairCache10equalsPairERK12btSimplePairii(ptr noundef nonnull align 8 dereferenceable(104) %this, ptr noundef nonnull align 8 dereferenceable(16) %pair, i32 noundef %indexA, i32 noundef %indexB) #1 comdat align 2 {
entry:
  %this.addr = alloca ptr, align 8
  %pair.addr = alloca ptr, align 8
  %indexA.addr = alloca i32, align 4
  %indexB.addr = alloca i32, align 4
  store ptr %this, ptr %this.addr, align 8
  store ptr %pair, ptr %pair.addr, align 8
  store i32 %indexA, ptr %indexA.addr, align 4
  store i32 %indexB, ptr %indexB.addr, align 4
  %0 = load ptr, ptr %pair.addr, align 8
  %m_indexA = getelementptr inbounds %struct.btSimplePair, ptr %0, i32 0, i32 0
  %1 = load i32, ptr %m_indexA, align 8
  %2 = load i32, ptr %indexA.addr, align 4
  %cmp = icmp eq i32 %1, %2
  br i1 %cmp, label %land.rhs, label %land.end

land.rhs:                                         ; preds = %entry
  %3 = load ptr, ptr %pair.addr, align 8
  %m_indexB = getelementptr inbounds %struct.btSimplePair, ptr %3, i32 0, i32 1
  %4 = load i32, ptr %m_indexB, align 4
  %5 = load i32, ptr %indexB.addr, align 4
  %cmp2 = icmp eq i32 %4, %5
  br label %land.end

land.end:                                         ; preds = %land.rhs, %entry
  %6 = phi i1 [ false, %entry ], [ %cmp2, %land.rhs ]
  ret i1 %6
}

; Function Attrs: mustprogress nounwind uwtable
define linkonce_odr dso_local noundef nonnull align 8 dereferenceable(16) ptr @_ZN20btAlignedObjectArrayI12btSimplePairEixEi(ptr noundef nonnull align 8 dereferenceable(25) %this, i32 noundef %n) #1 comdat align 2 {
entry:
  %this.addr = alloca ptr, align 8
  %n.addr = alloca i32, align 4
  store ptr %this, ptr %this.addr, align 8
  store i32 %n, ptr %n.addr, align 4
  %this1 = load ptr, ptr %this.addr, align 8
  %m_data = getelementptr inbounds %class.btAlignedObjectArray, ptr %this1, i32 0, i32 5
  %0 = load ptr, ptr %m_data, align 8
  %1 = load i32, ptr %n.addr, align 4
  %idxprom = sext i32 %1 to i64
  %arrayidx = getelementptr inbounds %struct.btSimplePair, ptr %0, i64 %idxprom
  ret ptr %arrayidx
}

; Function Attrs: mustprogress nounwind uwtable
define linkonce_odr dso_local noundef nonnull align 4 dereferenceable(4) ptr @_ZN20btAlignedObjectArrayIiEixEi(ptr noundef nonnull align 8 dereferenceable(25) %this, i32 noundef %n) #1 comdat align 2 {
entry:
  %this.addr = alloca ptr, align 8
  %n.addr = alloca i32, align 4
  store ptr %this, ptr %this.addr, align 8
  store i32 %n, ptr %n.addr, align 4
  %this1 = load ptr, ptr %this.addr, align 8
  %m_data = getelementptr inbounds %class.btAlignedObjectArray.0, ptr %this1, i32 0, i32 5
  %0 = load ptr, ptr %m_data, align 8
  %1 = load i32, ptr %n.addr, align 4
  %idxprom = sext i32 %1 to i64
  %arrayidx = getelementptr inbounds i32, ptr %0, i64 %idxprom
  ret ptr %arrayidx
}

; Function Attrs: mustprogress nounwind uwtable
define linkonce_odr dso_local noundef i32 @_ZNK20btAlignedObjectArrayIiE4sizeEv(ptr noundef nonnull align 8 dereferenceable(25) %this) #1 comdat align 2 {
entry:
  %this.addr = alloca ptr, align 8
  store ptr %this, ptr %this.addr, align 8
  %this1 = load ptr, ptr %this.addr, align 8
  %m_size = getelementptr inbounds %class.btAlignedObjectArray.0, ptr %this1, i32 0, i32 2
  %0 = load i32, ptr %m_size, align 4
  ret i32 %0
}

; Function Attrs: mustprogress nounwind uwtable
define linkonce_odr dso_local noundef i32 @_ZNK20btAlignedObjectArrayI12btSimplePairE8capacityEv(ptr noundef nonnull align 8 dereferenceable(25) %this) #1 comdat align 2 {
entry:
  %this.addr = alloca ptr, align 8
  store ptr %this, ptr %this.addr, align 8
  %this1 = load ptr, ptr %this.addr, align 8
  %m_capacity = getelementptr inbounds %class.btAlignedObjectArray, ptr %this1, i32 0, i32 3
  %0 = load i32, ptr %m_capacity, align 8
  ret i32 %0
}

; Function Attrs: mustprogress nounwind uwtable
define linkonce_odr dso_local noundef i32 @_ZN23btHashedSimplePairCache7getHashEjj(ptr noundef nonnull align 8 dereferenceable(104) %this, i32 noundef %indexA, i32 noundef %indexB) #1 comdat align 2 {
entry:
  %this.addr = alloca ptr, align 8
  %indexA.addr = alloca i32, align 4
  %indexB.addr = alloca i32, align 4
  %key = alloca i32, align 4
  store ptr %this, ptr %this.addr, align 8
  store i32 %indexA, ptr %indexA.addr, align 4
  store i32 %indexB, ptr %indexB.addr, align 4
  %0 = load i32, ptr %indexA.addr, align 4
  %1 = load i32, ptr %indexB.addr, align 4
  %shl = shl i32 %1, 16
  %or = or i32 %0, %shl
  store i32 %or, ptr %key, align 4
  %2 = load i32, ptr %key, align 4
  %shl2 = shl i32 %2, 15
  %not = xor i32 %shl2, -1
  %3 = load i32, ptr %key, align 4
  %add = add i32 %3, %not
  store i32 %add, ptr %key, align 4
  %4 = load i32, ptr %key, align 4
  %shr = lshr i32 %4, 10
  %5 = load i32, ptr %key, align 4
  %xor = xor i32 %5, %shr
  store i32 %xor, ptr %key, align 4
  %6 = load i32, ptr %key, align 4
  %shl3 = shl i32 %6, 3
  %7 = load i32, ptr %key, align 4
  %add4 = add i32 %7, %shl3
  store i32 %add4, ptr %key, align 4
  %8 = load i32, ptr %key, align 4
  %shr5 = lshr i32 %8, 6
  %9 = load i32, ptr %key, align 4
  %xor6 = xor i32 %9, %shr5
  store i32 %xor6, ptr %key, align 4
  %10 = load i32, ptr %key, align 4
  %shl7 = shl i32 %10, 11
  %not8 = xor i32 %shl7, -1
  %11 = load i32, ptr %key, align 4
  %add9 = add i32 %11, %not8
  store i32 %add9, ptr %key, align 4
  %12 = load i32, ptr %key, align 4
  %shr10 = lshr i32 %12, 16
  %13 = load i32, ptr %key, align 4
  %xor11 = xor i32 %13, %shr10
  store i32 %xor11, ptr %key, align 4
  %14 = load i32, ptr %key, align 4
  ret i32 %14
}

; Function Attrs: mustprogress uwtable
define dso_local noundef ptr @_ZN23btHashedSimplePairCache8findPairEii(ptr noundef nonnull align 8 dereferenceable(104) %this, i32 noundef %indexA, i32 noundef %indexB) #2 align 2 {
entry:
  %retval = alloca ptr, align 8
  %this.addr = alloca ptr, align 8
  %indexA.addr = alloca i32, align 4
  %indexB.addr = alloca i32, align 4
  %hash = alloca i32, align 4
  %index = alloca i32, align 4
  store ptr %this, ptr %this.addr, align 8
  store i32 %indexA, ptr %indexA.addr, align 4
  store i32 %indexB, ptr %indexB.addr, align 4
  %this1 = load ptr, ptr %this.addr, align 8
  %0 = load i32, ptr %indexA.addr, align 4
  %1 = load i32, ptr %indexB.addr, align 4
  %call = call noundef i32 @_ZN23btHashedSimplePairCache7getHashEjj(ptr noundef nonnull align 8 dereferenceable(104) %this1, i32 noundef %0, i32 noundef %1)
  %m_overlappingPairArray = getelementptr inbounds %class.btHashedSimplePairCache, ptr %this1, i32 0, i32 1
  %call2 = call noundef i32 @_ZNK20btAlignedObjectArrayI12btSimplePairE8capacityEv(ptr noundef nonnull align 8 dereferenceable(25) %m_overlappingPairArray)
  %sub = sub nsw i32 %call2, 1
  %and = and i32 %call, %sub
  store i32 %and, ptr %hash, align 4
  %2 = load i32, ptr %hash, align 4
  %m_hashTable = getelementptr inbounds %class.btHashedSimplePairCache, ptr %this1, i32 0, i32 2
  %call3 = call noundef i32 @_ZNK20btAlignedObjectArrayIiE4sizeEv(ptr noundef nonnull align 8 dereferenceable(25) %m_hashTable)
  %cmp = icmp sge i32 %2, %call3
  br i1 %cmp, label %if.then, label %if.end

if.then:                                          ; preds = %entry
  store ptr null, ptr %retval, align 8
  br label %return

if.end:                                           ; preds = %entry
  %m_hashTable4 = getelementptr inbounds %class.btHashedSimplePairCache, ptr %this1, i32 0, i32 2
  %3 = load i32, ptr %hash, align 4
  %call5 = call noundef nonnull align 4 dereferenceable(4) ptr @_ZN20btAlignedObjectArrayIiEixEi(ptr noundef nonnull align 8 dereferenceable(25) %m_hashTable4, i32 noundef %3)
  %4 = load i32, ptr %call5, align 4
  store i32 %4, ptr %index, align 4
  br label %while.cond

while.cond:                                       ; preds = %while.body, %if.end
  %5 = load i32, ptr %index, align 4
  %cmp6 = icmp ne i32 %5, -1
  br i1 %cmp6, label %land.rhs, label %land.end

land.rhs:                                         ; preds = %while.cond
  %m_overlappingPairArray7 = getelementptr inbounds %class.btHashedSimplePairCache, ptr %this1, i32 0, i32 1
  %6 = load i32, ptr %index, align 4
  %call8 = call noundef nonnull align 8 dereferenceable(16) ptr @_ZN20btAlignedObjectArrayI12btSimplePairEixEi(ptr noundef nonnull align 8 dereferenceable(25) %m_overlappingPairArray7, i32 noundef %6)
  %7 = load i32, ptr %indexA.addr, align 4
  %8 = load i32, ptr %indexB.addr, align 4
  %call9 = call noundef zeroext i1 @_ZN23btHashedSimplePairCache10equalsPairERK12btSimplePairii(ptr noundef nonnull align 8 dereferenceable(104) %this1, ptr noundef nonnull align 8 dereferenceable(16) %call8, i32 noundef %7, i32 noundef %8)
  %conv = zext i1 %call9 to i32
  %cmp10 = icmp eq i32 %conv, 0
  br label %land.end

land.end:                                         ; preds = %land.rhs, %while.cond
  %9 = phi i1 [ false, %while.cond ], [ %cmp10, %land.rhs ]
  br i1 %9, label %while.body, label %while.end

while.body:                                       ; preds = %land.end
  %m_next = getelementptr inbounds %class.btHashedSimplePairCache, ptr %this1, i32 0, i32 3
  %10 = load i32, ptr %index, align 4
  %call11 = call noundef nonnull align 4 dereferenceable(4) ptr @_ZN20btAlignedObjectArrayIiEixEi(ptr noundef nonnull align 8 dereferenceable(25) %m_next, i32 noundef %10)
  %11 = load i32, ptr %call11, align 4
  store i32 %11, ptr %index, align 4
  br label %while.cond, !llvm.loop !9

while.end:                                        ; preds = %land.end
  %12 = load i32, ptr %index, align 4
  %cmp12 = icmp eq i32 %12, -1
  br i1 %cmp12, label %if.then13, label %if.end14

if.then13:                                        ; preds = %while.end
  store ptr null, ptr %retval, align 8
  br label %return

if.end14:                                         ; preds = %while.end
  %m_overlappingPairArray15 = getelementptr inbounds %class.btHashedSimplePairCache, ptr %this1, i32 0, i32 1
  %13 = load i32, ptr %index, align 4
  %call16 = call noundef nonnull align 8 dereferenceable(16) ptr @_ZN20btAlignedObjectArrayI12btSimplePairEixEi(ptr noundef nonnull align 8 dereferenceable(25) %m_overlappingPairArray15, i32 noundef %13)
  store ptr %call16, ptr %retval, align 8
  br label %return

return:                                           ; preds = %if.end14, %if.then13, %if.then
  %14 = load ptr, ptr %retval, align 8
  ret ptr %14
}