; Function Attrs: mustprogress nofree norecurse nosync nounwind willreturn memory(read, inaccessiblemem: none) uwtable
define dso_local noundef ptr @_ZN23btHashedSimplePairCache8findPairEii(ptr nocapture noundef nonnull readonly align 8 dereferenceable(104) %this, i32 noundef %indexA, i32 noundef %indexB) local_unnamed_addr #3 align 2 {
entry:
  %shl.i = shl i32 %indexB, 16
  %or.i = or i32 %shl.i, %indexA
  %shl2.i = shl i32 %or.i, 15
  %not.i = xor i32 %shl2.i, -1
  %add.i = add i32 %or.i, %not.i
  %shr.i = lshr i32 %add.i, 10
  %xor.i = xor i32 %shr.i, %add.i
  %add4.i = mul i32 %xor.i, 9
  %shr5.i = lshr i32 %add4.i, 6
  %xor6.i = xor i32 %shr5.i, %add4.i
  %shl7.i = shl i32 %xor6.i, 11
  %not8.i = xor i32 %shl7.i, -1
  %add9.i = add i32 %xor6.i, %not8.i
  %shr10.i = lshr i32 %add9.i, 16
  %xor11.i = xor i32 %shr10.i, %add9.i
  %m_capacity.i = getelementptr inbounds i8, ptr %this, i64 16
  %0 = load i32, ptr %m_capacity.i, align 8
  %sub = add nsw i32 %0, -1
  %and = and i32 %sub, %xor11.i
  %m_size.i = getelementptr inbounds i8, ptr %this, i64 44
  %1 = load i32, ptr %m_size.i, align 4
  %cmp.not = icmp slt i32 %and, %1
  br i1 %cmp.not, label %if.end, label %return

if.end:                                           ; preds = %entry
  %m_data.i = getelementptr inbounds i8, ptr %this, i64 56
  %2 = load ptr, ptr %m_data.i, align 8
  %idxprom.i = sext i32 %and to i64
  %arrayidx.i = getelementptr inbounds i32, ptr %2, i64 %idxprom.i
  %index.017 = load i32, ptr %arrayidx.i, align 4
  %cond18 = icmp eq i32 %index.017, -1
  br i1 %cond18, label %return, label %land.rhs.lr.ph

land.rhs.lr.ph:                                   ; preds = %if.end
  %m_data.i8 = getelementptr inbounds i8, ptr %this, i64 24
  %3 = load ptr, ptr %m_data.i8, align 8
  %m_data.i11 = getelementptr inbounds i8, ptr %this, i64 88
  %4 = load ptr, ptr %m_data.i11, align 8
  br label %land.rhs

land.rhs:                                         ; preds = %land.rhs.lr.ph, %while.body
  %index.019 = phi i32 [ %index.017, %land.rhs.lr.ph ], [ %index.0, %while.body ]
  %idxprom.i9 = sext i32 %index.019 to i64
  %arrayidx.i10 = getelementptr inbounds %struct.btSimplePair, ptr %3, i64 %idxprom.i9
  %5 = load i32, ptr %arrayidx.i10, align 8
  %cmp.i = icmp eq i32 %5, %indexA
  %m_indexB.i = getelementptr inbounds i8, ptr %arrayidx.i10, i64 4
  %6 = load i32, ptr %m_indexB.i, align 4
  %cmp2.i = icmp eq i32 %6, %indexB
  %7 = select i1 %cmp.i, i1 %cmp2.i, i1 false
  br i1 %7, label %return, label %while.body

while.body:                                       ; preds = %land.rhs
  %arrayidx.i13 = getelementptr inbounds i32, ptr %4, i64 %idxprom.i9
  %index.0 = load i32, ptr %arrayidx.i13, align 4
  %cond = icmp eq i32 %index.0, -1
  br i1 %cond, label %return, label %land.rhs, !llvm.loop !12

return:                                           ; preds = %while.body, %land.rhs, %if.end, %entry
  %retval.0 = phi ptr [ null, %entry ], [ null, %if.end ], [ null, %while.body ], [ %arrayidx.i10, %land.rhs ]
  ret ptr %retval.0
}